target datalayout = "e-m:e-p270:32:32-p271:32:32-p272:64:64-i64:64-i128:128-f80:128-n8:16:32:64-S128"
target triple = "x86_64-pc-linux-gnu"

@.str.12 = private unnamed_addr constant [5 x i8] c"none\00", align 1
@.str.13 = private unnamed_addr constant [8 x i8] c"warning\00", align 1
@.str.14 = private unnamed_addr constant [5 x i8] c"info\00", align 1
@.str.15 = private unnamed_addr constant [6 x i8] c"debug\00", align 1
@.str.16 = private unnamed_addr constant [8 x i8] c"unknown\00", align 1

; Function Attrs: mustprogress nounwind uwtable
define noundef ptr @_ZN19OpenColorIO_v2_5dev20LoggingLevelToStringENS_12LoggingLevelE(i32 noundef %0) #4 {
  %2 = alloca ptr, align 8
  %3 = alloca i32, align 4
  store i32 %0, ptr %3, align 4, !tbaa !51
  %4 = load i32, ptr %3, align 4, !tbaa !51
  %5 = icmp eq i32 %4, 0
  br i1 %5, label %6, label %7

6:                                                ; preds = %1
  store ptr @.str.12, ptr %2, align 8
  br label %23

7:                                                ; preds = %1
  %8 = load i32, ptr %3, align 4, !tbaa !51
  %9 = icmp eq i32 %8, 1
  br i1 %9, label %10, label %11

10:                                               ; preds = %7
  store ptr @.str.13, ptr %2, align 8
  br label %23

11:                                               ; preds = %7
  %12 = load i32, ptr %3, align 4, !tbaa !51
  %13 = icmp eq i32 %12, 2
  br i1 %13, label %14, label %15

14:                                               ; preds = %11
  store ptr @.str.14, ptr %2, align 8
  br label %23

15:                                               ; preds = %11
  %16 = load i32, ptr %3, align 4, !tbaa !51
  %17 = icmp eq i32 %16, 3
  br i1 %17, label %18, label %19

18:                                               ; preds = %15
  store ptr @.str.15, ptr %2, align 8
  br label %23

19:                                               ; preds = %15
  br label %20

20:                                               ; preds = %19
  br label %21

21:                                               ; preds = %20
  br label %22

22:                                               ; preds = %21
  store ptr @.str.16, ptr %2, align 8
  br label %23

23:                                               ; preds = %22, %18, %14, %10, %6
  %24 = load ptr, ptr %2, align 8
  ret ptr %24
}